; Function Attrs: mustprogress uwtable
define hidden noundef zeroext i1 @_ZN4cvc58internal6theory3sep9TheorySep7hasTermENS0_12NodeTemplateILb1EEE(ptr noundef nonnull readonly align 8 captures(none) dereferenceable(1824) %0, ptr noundef readonly captures(none) %1) local_unnamed_addr #3 align 2 personality ptr @__gxx_personality_v0 {
  %3 = alloca %"class.cvc5::internal::NodeTemplate.595", align 8
  %4 = getelementptr inbounds nuw i8, ptr %0, i64 80
  %5 = load ptr, ptr %4, align 8, !tbaa !392
  %6 = load ptr, ptr %1, align 8, !tbaa !19
  store ptr %6, ptr %3, align 8, !tbaa !393
  %7 = call noundef zeroext i1 @_ZNK4cvc58internal6theory2eq14EqualityEngine7hasTermENS0_12NodeTemplateILb0EEE(ptr noundef nonnull align 8 dereferenceable(1784) %5, ptr noundef nonnull %3)
  ret i1 %7
}